; Function Attrs: mustprogress nofree norecurse nosync nounwind willreturn memory(readwrite, inaccessiblemem: none) uwtable
define dso_local ptr @lua_touserdata(ptr noundef readonly captures(none) %0, i32 noundef %1) local_unnamed_addr #7 {
  %3 = icmp sgt i32 %1, 0
  br i1 %3, label %4, label %18

4:                                                ; preds = %2
  %5 = getelementptr inbounds nuw i8, ptr %0, i64 32
  %6 = load ptr, ptr %5, align 8, !tbaa !15
  %7 = zext nneg i32 %1 to i64
  %8 = getelementptr %union.TValue, ptr %6, i64 %7
  %9 = getelementptr i8, ptr %8, i64 -8
  %10 = getelementptr inbounds nuw i8, ptr %0, i64 40
  %11 = load ptr, ptr %10, align 8, !tbaa !14
  %12 = icmp ult ptr %9, %11
  br i1 %12, label %index2adr.exit, label %13

13:                                               ; preds = %4
  %14 = getelementptr inbounds nuw i8, ptr %0, i64 16
  %15 = load i64, ptr %14, align 8, !tbaa !21
  %16 = inttoptr i64 %15 to ptr
  %17 = getelementptr inbounds nuw i8, ptr %16, i64 248
  br label %index2adr.exit

18:                                               ; preds = %2
  %19 = icmp sgt i32 %1, -10000
  br i1 %19, label %20, label %25

20:                                               ; preds = %18
  %21 = getelementptr inbounds nuw i8, ptr %0, i64 40
  %22 = load ptr, ptr %21, align 8, !tbaa !14
  %23 = sext i32 %1 to i64
  %24 = getelementptr inbounds %union.TValue, ptr %22, i64 %23
  br label %index2adr.exit

25:                                               ; preds = %18
  switch i32 %1, label %39 [
    i32 -10002, label %26
    i32 -10000, label %34
  ]

26:                                               ; preds = %25
  %27 = getelementptr inbounds nuw i8, ptr %0, i64 16
  %28 = load i64, ptr %27, align 8, !tbaa !21
  %29 = inttoptr i64 %28 to ptr
  %30 = getelementptr inbounds nuw i8, ptr %29, i64 232
  %31 = getelementptr inbounds nuw i8, ptr %0, i64 72
  %32 = load i64, ptr %31, align 8, !tbaa !24
  %33 = or i64 %32, -1688849860263936
  store i64 %33, ptr %30, align 8, !tbaa !17
  br label %index2adr.exit

34:                                               ; preds = %25
  %35 = getelementptr inbounds nuw i8, ptr %0, i64 16
  %36 = load i64, ptr %35, align 8, !tbaa !21
  %37 = inttoptr i64 %36 to ptr
  %38 = getelementptr inbounds nuw i8, ptr %37, i64 272
  br label %index2adr.exit

39:                                               ; preds = %25
  %40 = getelementptr inbounds nuw i8, ptr %0, i64 32
  %41 = load ptr, ptr %40, align 8, !tbaa !15
  %42 = getelementptr inbounds i8, ptr %41, i64 -16
  %43 = load i64, ptr %42, align 8, !tbaa !17
  %44 = and i64 %43, 140737488355327
  %45 = inttoptr i64 %44 to ptr
  %46 = icmp eq i32 %1, -10001
  br i1 %46, label %47, label %55

47:                                               ; preds = %39
  %48 = getelementptr inbounds nuw i8, ptr %0, i64 16
  %49 = load i64, ptr %48, align 8, !tbaa !21
  %50 = inttoptr i64 %49 to ptr
  %51 = getelementptr inbounds nuw i8, ptr %50, i64 232
  %52 = getelementptr inbounds nuw i8, ptr %45, i64 16
  %53 = load i64, ptr %52, align 8, !tbaa !17
  %54 = or i64 %53, -1688849860263936
  store i64 %54, ptr %51, align 8, !tbaa !17
  br label %index2adr.exit

55:                                               ; preds = %39
  %56 = sub nuw nsw i32 -10002, %1
  %57 = getelementptr inbounds nuw i8, ptr %45, i64 11
  %58 = load i8, ptr %57, align 1, !tbaa !17
  %59 = zext i8 %58 to i32
  %.not.i = icmp samesign ugt i32 %56, %59
  br i1 %.not.i, label %65, label %60

60:                                               ; preds = %55
  %61 = getelementptr inbounds nuw i8, ptr %45, i64 48
  %62 = sub nsw i32 -10003, %1
  %63 = sext i32 %62 to i64
  %64 = getelementptr inbounds [1 x %union.TValue], ptr %61, i64 0, i64 %63
  br label %index2adr.exit

65:                                               ; preds = %55
  %66 = getelementptr inbounds nuw i8, ptr %0, i64 16
  %67 = load i64, ptr %66, align 8, !tbaa !21
  %68 = inttoptr i64 %67 to ptr
  %69 = getelementptr inbounds nuw i8, ptr %68, i64 248
  br label %index2adr.exit

index2adr.exit:                                   ; preds = %4, %13, %20, %26, %34, %47, %60, %65
  %.0.i8 = phi ptr [ %24, %20 ], [ %30, %26 ], [ %38, %34 ], [ %17, %13 ], [ %9, %4 ], [ %51, %47 ], [ %64, %60 ], [ %69, %65 ]
  %70 = load i64, ptr %.0.i8, align 8, !tbaa !17
  %71 = ashr i64 %70, 47
  switch i64 %71, label %lightudV.exit [
    i64 -13, label %72
    i64 -4, label %76
  ]

72:                                               ; preds = %index2adr.exit
  %73 = and i64 %70, 140737488355327
  %74 = inttoptr i64 %73 to ptr
  %75 = getelementptr inbounds nuw i8, ptr %74, i64 48
  br label %lightudV.exit

76:                                               ; preds = %index2adr.exit
  %77 = lshr i64 %70, 39
  %78 = and i64 %77, 255
  %79 = icmp eq i64 %78, 255
  br i1 %79, label %lightudV.exit, label %80

80:                                               ; preds = %76
  %81 = getelementptr inbounds nuw i8, ptr %0, i64 16
  %82 = load i64, ptr %81, align 8, !tbaa !21
  %83 = inttoptr i64 %82 to ptr
  %84 = getelementptr inbounds nuw i8, ptr %83, i64 112
  %85 = load i64, ptr %84, align 8, !tbaa !43
  %86 = inttoptr i64 %85 to ptr
  %87 = getelementptr inbounds nuw i32, ptr %86, i64 %78
  %88 = load i32, ptr %87, align 4, !tbaa !28
  %89 = zext i32 %88 to i64
  %90 = shl nuw i64 %89, 32
  %91 = and i64 %70, 549755813887
  %92 = or i64 %90, %91
  %93 = inttoptr i64 %92 to ptr
  br label %lightudV.exit

lightudV.exit:                                    ; preds = %80, %76, %index2adr.exit, %72
  %.0 = phi ptr [ %75, %72 ], [ null, %index2adr.exit ], [ %93, %80 ], [ null, %76 ]
  ret ptr %.0
}